target datalayout = "e-m:e-p270:32:32-p271:32:32-p272:64:64-i64:64-i128:128-f80:128-n8:16:32:64-S128"
target triple = "x86_64-pc-linux-gnu"

%struct.H5C_log_trace_udata_t = type { ptr, ptr }
%struct.H5C_cache_entry_t = type { ptr, i64, i64, ptr, i8, ptr, i8, i8, i8, i8, i32, i8, i8, i8, i8, i8, i32, ptr, i32, i32, i32, i32, i32, i8, i8, ptr, ptr, ptr, ptr, ptr, ptr, i8, i32, i8, i64, ptr, i64, i64, i32, i8, i32, i32, i8, ptr, ptr, ptr }

@H5C_init_g = external global i8, align 1
@H5_libterm_g = external global i8, align 1
@.str = private unnamed_addr constant [106 x i8] c"generated/home/dtcxzyw/WorkSpace/Projects/compilers/llvm-opt-benchmark/bench/hdf5/hdf5/src/H5Clog_trace.c\00", align 1
@H5E_CACHE_g = external global i64, align 8
@.str.3 = private unnamed_addr constant [3 x i8] c"%s\00", align 1
@H5E_LOGGING_g = external global i64, align 8
@.str.11 = private unnamed_addr constant [27 x i8] c"unable to emit log message\00", align 1
@__func__.H5C__trace_write_log_message = private unnamed_addr constant [29 x i8] c"H5C__trace_write_log_message\00", align 1
@.str.12 = private unnamed_addr constant [26 x i8] c"error writing log message\00", align 1
@.str.22 = private unnamed_addr constant [34 x i8] c"H5AC_protect 0x%lx %d 0x%x %d %d\0A\00", align 1
@__func__.H5C__trace_write_protect_entry_log_msg = private unnamed_addr constant [39 x i8] c"H5C__trace_write_protect_entry_log_msg\00", align 1

; Function Attrs: nounwind uwtable
define internal i32 @H5C__trace_write_log_message(ptr noundef %0) #0 {
  %2 = alloca ptr, align 8
  %3 = alloca i64, align 8
  %4 = alloca i32, align 4
  %5 = alloca i8, align 1
  store ptr %0, ptr %2, align 8, !tbaa !12
  call void @llvm.lifetime.start.p0(i64 8, ptr %3) #8
  call void @llvm.lifetime.start.p0(i64 4, ptr %4) #8
  store i32 0, ptr %4, align 4, !tbaa !10
  call void @llvm.lifetime.start.p0(i64 1, ptr %5) #8
  store i8 0, ptr %5, align 1, !tbaa !14
  %6 = load i8, ptr @H5C_init_g, align 1, !tbaa !14, !range !16, !noundef !17
  %7 = trunc i8 %6 to i1
  br i1 %7, label %12, label %8

8:                                                ; preds = %1
  %9 = load i8, ptr @H5_libterm_g, align 1, !tbaa !14, !range !16, !noundef !17
  %10 = trunc i8 %9 to i1
  %11 = xor i1 %10, true
  br label %12

12:                                               ; preds = %8, %1
  %13 = phi i1 [ true, %1 ], [ %11, %8 ]
  %14 = xor i1 %13, true
  %15 = xor i1 %14, true
  %16 = zext i1 %15 to i32
  %17 = sext i32 %16 to i64
  %18 = call i64 @llvm.expect.i64(i64 %17, i64 1)
  %19 = icmp ne i64 %18, 0
  br i1 %19, label %20, label %61

20:                                               ; preds = %12
  %21 = load ptr, ptr %2, align 8, !tbaa !12
  %22 = getelementptr inbounds nuw %struct.H5C_log_trace_udata_t, ptr %21, i32 0, i32 1
  %23 = load ptr, ptr %22, align 8, !tbaa !24
  %24 = call i64 @strlen(ptr noundef %23) #10
  store i64 %24, ptr %3, align 8, !tbaa !22
  %25 = load i64, ptr %3, align 8, !tbaa !22
  %26 = trunc i64 %25 to i32
  %27 = load ptr, ptr %2, align 8, !tbaa !12
  %28 = getelementptr inbounds nuw %struct.H5C_log_trace_udata_t, ptr %27, i32 0, i32 0
  %29 = load ptr, ptr %28, align 8, !tbaa !27
  %30 = load ptr, ptr %2, align 8, !tbaa !12
  %31 = getelementptr inbounds nuw %struct.H5C_log_trace_udata_t, ptr %30, i32 0, i32 1
  %32 = load ptr, ptr %31, align 8, !tbaa !24
  %33 = call i32 (ptr, ptr, ...) @fprintf(ptr noundef %29, ptr noundef @.str.3, ptr noundef %32) #8
  %34 = icmp ne i32 %26, %33
  br i1 %34, label %35, label %54

35:                                               ; preds = %20
  br label %36

36:                                               ; preds = %35
  br label %37

37:                                               ; preds = %36
  br label %38

38:                                               ; preds = %37
  %39 = load i64, ptr @H5E_CACHE_g, align 8, !tbaa !22
  %40 = load i64, ptr @H5E_LOGGING_g, align 8, !tbaa !22
  %41 = call i32 (ptr, ptr, i32, i64, i64, ptr, ...) @H5E_printf_stack(ptr noundef @.str, ptr noundef @__func__.H5C__trace_write_log_message, i32 noundef 168, i64 noundef %39, i64 noundef %40, ptr noundef @.str.12)
  br label %42

42:                                               ; preds = %38
  br label %43

43:                                               ; preds = %42
  store i8 1, ptr %5, align 1, !tbaa !14
  %44 = load i8, ptr %5, align 1, !tbaa !14, !range !16, !noundef !17
  %45 = trunc i8 %44 to i1
  %46 = zext i1 %45 to i8
  store i8 %46, ptr %5, align 1, !tbaa !14
  br label %47

47:                                               ; preds = %43
  br label %48

48:                                               ; preds = %47
  br label %49

49:                                               ; preds = %48
  store i32 -1, ptr %4, align 4, !tbaa !10
  br label %60

50:                                               ; No predecessors!
  br label %51

51:                                               ; preds = %50
  br label %52

52:                                               ; preds = %51
  br label %53

53:                                               ; preds = %52
  br label %54

54:                                               ; preds = %53, %20
  %55 = load ptr, ptr %2, align 8, !tbaa !12
  %56 = getelementptr inbounds nuw %struct.H5C_log_trace_udata_t, ptr %55, i32 0, i32 1
  %57 = load ptr, ptr %56, align 8, !tbaa !24
  %58 = load i64, ptr %3, align 8, !tbaa !22
  %59 = mul i64 %58, 1
  call void @llvm.memset.p0.i64(ptr align 1 %57, i8 0, i64 %59, i1 false)
  br label %60

60:                                               ; preds = %54, %49
  br label %61

61:                                               ; preds = %60, %12
  %62 = load i32, ptr %4, align 4, !tbaa !10
  call void @llvm.lifetime.end.p0(i64 1, ptr %5) #8
  call void @llvm.lifetime.end.p0(i64 4, ptr %4) #8
  call void @llvm.lifetime.end.p0(i64 8, ptr %3) #8
  ret i32 %62
}

; Function Attrs: nounwind uwtable
define internal i32 @H5C__trace_write_protect_entry_log_msg(ptr noundef %0, ptr noundef %1, i32 noundef %2, i32 noundef %3, i32 noundef %4) #0 {
  %6 = alloca ptr, align 8
  %7 = alloca ptr, align 8
  %8 = alloca i32, align 4
  %9 = alloca i32, align 4
  %10 = alloca i32, align 4
  %11 = alloca ptr, align 8
  %12 = alloca i32, align 4
  %13 = alloca i8, align 1
  store ptr %0, ptr %6, align 8, !tbaa !28
  store ptr %1, ptr %7, align 8, !tbaa !29
  store i32 %2, ptr %8, align 4, !tbaa !10
  store i32 %3, ptr %9, align 4, !tbaa !10
  store i32 %4, ptr %10, align 4, !tbaa !10
  call void @llvm.lifetime.start.p0(i64 8, ptr %11) #8
  %14 = load ptr, ptr %6, align 8, !tbaa !28
  store ptr %14, ptr %11, align 8, !tbaa !12
  call void @llvm.lifetime.start.p0(i64 4, ptr %12) #8
  store i32 0, ptr %12, align 4, !tbaa !10
  call void @llvm.lifetime.start.p0(i64 1, ptr %13) #8
  store i8 0, ptr %13, align 1, !tbaa !14
  %15 = load i8, ptr @H5C_init_g, align 1, !tbaa !14, !range !16, !noundef !17
  %16 = trunc i8 %15 to i1
  br i1 %16, label %21, label %17

17:                                               ; preds = %5
  %18 = load i8, ptr @H5_libterm_g, align 1, !tbaa !14, !range !16, !noundef !17
  %19 = trunc i8 %18 to i1
  %20 = xor i1 %19, true
  br label %21

21:                                               ; preds = %17, %5
  %22 = phi i1 [ true, %5 ], [ %20, %17 ]
  %23 = xor i1 %22, true
  %24 = xor i1 %23, true
  %25 = zext i1 %24 to i32
  %26 = sext i32 %25 to i64
  %27 = call i64 @llvm.expect.i64(i64 %26, i64 1)
  %28 = icmp ne i64 %27, 0
  br i1 %28, label %29, label %68

29:                                               ; preds = %21
  %30 = load ptr, ptr %11, align 8, !tbaa !12
  %31 = getelementptr inbounds nuw %struct.H5C_log_trace_udata_t, ptr %30, i32 0, i32 1
  %32 = load ptr, ptr %31, align 8, !tbaa !24
  %33 = load ptr, ptr %7, align 8, !tbaa !29
  %34 = getelementptr inbounds nuw %struct.H5C_cache_entry_t, ptr %33, i32 0, i32 1
  %35 = load i64, ptr %34, align 8, !tbaa !31
  %36 = load i32, ptr %8, align 4, !tbaa !10
  %37 = load i32, ptr %9, align 4, !tbaa !10
  %38 = load ptr, ptr %7, align 8, !tbaa !29
  %39 = getelementptr inbounds nuw %struct.H5C_cache_entry_t, ptr %38, i32 0, i32 2
  %40 = load i64, ptr %39, align 8, !tbaa !38
  %41 = trunc i64 %40 to i32
  %42 = load i32, ptr %10, align 4, !tbaa !10
  %43 = call i32 (ptr, i64, ptr, ...) @snprintf(ptr noundef %32, i64 noundef 4096, ptr noundef @.str.22, i64 noundef %35, i32 noundef %36, i32 noundef %37, i32 noundef %41, i32 noundef %42) #8
  %44 = load ptr, ptr %11, align 8, !tbaa !12
  %45 = call i32 @H5C__trace_write_log_message(ptr noundef %44)
  %46 = icmp slt i32 %45, 0
  br i1 %46, label %47, label %66

47:                                               ; preds = %29
  br label %48

48:                                               ; preds = %47
  br label %49

49:                                               ; preds = %48
  br label %50

50:                                               ; preds = %49
  %51 = load i64, ptr @H5E_CACHE_g, align 8, !tbaa !22
  %52 = load i64, ptr @H5E_LOGGING_g, align 8, !tbaa !22
  %53 = call i32 (ptr, ptr, i32, i64, i64, ptr, ...) @H5E_printf_stack(ptr noundef @.str, ptr noundef @__func__.H5C__trace_write_protect_entry_log_msg, i32 noundef 682, i64 noundef %51, i64 noundef %52, ptr noundef @.str.11)
  br label %54

54:                                               ; preds = %50
  br label %55

55:                                               ; preds = %54
  store i8 1, ptr %13, align 1, !tbaa !14
  %56 = load i8, ptr %13, align 1, !tbaa !14, !range !16, !noundef !17
  %57 = trunc i8 %56 to i1
  %58 = zext i1 %57 to i8
  store i8 %58, ptr %13, align 1, !tbaa !14
  br label %59

59:                                               ; preds = %55
  br label %60

60:                                               ; preds = %59
  br label %61

61:                                               ; preds = %60
  store i32 -1, ptr %12, align 4, !tbaa !10
  br label %67

62:                                               ; No predecessors!
  br label %63

63:                                               ; preds = %62
  br label %64

64:                                               ; preds = %63
  br label %65

65:                                               ; preds = %64
  br label %66

66:                                               ; preds = %65, %29
  br label %67

67:                                               ; preds = %66, %61
  br label %68

68:                                               ; preds = %67, %21
  %69 = load i32, ptr %12, align 4, !tbaa !10
  call void @llvm.lifetime.end.p0(i64 1, ptr %13) #8
  call void @llvm.lifetime.end.p0(i64 4, ptr %12) #8
  call void @llvm.lifetime.end.p0(i64 8, ptr %11) #8
  ret i32 %69
}