; Function Attrs: nounwind uwtable
define internal range(i32 -1, 1) i32 @H5C__trace_write_protect_entry_log_msg(ptr noundef readonly captures(none) %0, ptr noundef readonly captures(none) %1, i32 noundef %2, i32 noundef %3, i32 noundef %4) #0 {
  %6 = load i8, ptr @H5C_init_g, align 1, !tbaa !3, !range !7, !noundef !8
  %7 = trunc nuw i8 %6 to i1
  %8 = load i8, ptr @H5_libterm_g, align 1, !range !7
  %9 = trunc nuw i8 %8 to i1
  %10 = xor i1 %9, true
  %11 = select i1 %7, i1 true, i1 %10
  br i1 %11, label %12, label %H5C__trace_write_log_message.exit.thread, !prof !9

12:                                               ; preds = %5
  %13 = getelementptr inbounds nuw i8, ptr %0, i64 8
  %14 = load ptr, ptr %13, align 8, !tbaa !15
  %15 = getelementptr inbounds nuw i8, ptr %1, i64 8
  %16 = load i64, ptr %15, align 8, !tbaa !22
  %17 = getelementptr inbounds nuw i8, ptr %1, i64 16
  %18 = load i64, ptr %17, align 8, !tbaa !31
  %19 = trunc i64 %18 to i32
  %20 = tail call i32 (ptr, i64, ptr, ...) @snprintf(ptr noundef nonnull dereferenceable(1) %14, i64 noundef 4096, ptr noundef nonnull @.str.22, i64 noundef %16, i32 noundef %2, i32 noundef %3, i32 noundef %19, i32 noundef %4) #8
  %21 = load i8, ptr @H5C_init_g, align 1, !tbaa !3, !range !7, !noundef !8
  %22 = trunc nuw i8 %21 to i1
  %23 = load i8, ptr @H5_libterm_g, align 1, !range !7
  %24 = trunc nuw i8 %23 to i1
  %25 = xor i1 %24, true
  %26 = select i1 %22, i1 true, i1 %25
  br i1 %26, label %27, label %H5C__trace_write_log_message.exit.thread, !prof !9

27:                                               ; preds = %12
  %28 = load ptr, ptr %13, align 8, !tbaa !15
  %29 = tail call i64 @strlen(ptr noundef nonnull dereferenceable(1) %28) #9
  %30 = trunc i64 %29 to i32
  %31 = load ptr, ptr %0, align 8, !tbaa !21
  %32 = tail call i32 (ptr, ptr, ...) @fprintf(ptr noundef %31, ptr noundef nonnull @.str.3, ptr noundef nonnull %28) #8
  %.not.i = icmp eq i32 %32, %30
  br i1 %.not.i, label %33, label %35

33:                                               ; preds = %27
  %34 = load ptr, ptr %13, align 8, !tbaa !15
  tail call void @llvm.memset.p0.i64(ptr align 1 %34, i8 0, i64 %29, i1 false)
  br label %H5C__trace_write_log_message.exit.thread

35:                                               ; preds = %27
  %36 = load i64, ptr @H5E_CACHE_g, align 8, !tbaa !19
  %37 = load i64, ptr @H5E_LOGGING_g, align 8, !tbaa !19
  %38 = tail call i32 (ptr, ptr, i32, i64, i64, ptr, ...) @H5E_printf_stack(ptr noundef nonnull @.str, ptr noundef nonnull @__func__.H5C__trace_write_log_message, i32 noundef 168, i64 noundef %36, i64 noundef %37, ptr noundef nonnull @.str.12) #8
  %39 = load i64, ptr @H5E_CACHE_g, align 8, !tbaa !19
  %40 = load i64, ptr @H5E_LOGGING_g, align 8, !tbaa !19
  %41 = tail call i32 (ptr, ptr, i32, i64, i64, ptr, ...) @H5E_printf_stack(ptr noundef nonnull @.str, ptr noundef nonnull @__func__.H5C__trace_write_protect_entry_log_msg, i32 noundef 682, i64 noundef %39, i64 noundef %40, ptr noundef nonnull @.str.11) #8
  br label %H5C__trace_write_log_message.exit.thread

H5C__trace_write_log_message.exit.thread:         ; preds = %12, %33, %35, %5
  %.0 = phi i32 [ -1, %35 ], [ 0, %5 ], [ 0, %33 ], [ 0, %12 ]
  ret i32 %.0
}